; Function Attrs: nounwind uwtable
define i64 @ZSTDv06_decompress_usingDict(ptr noundef initializes((5132, 5136), (21520, 21560), (21588, 21596)) %0, ptr noundef %1, i64 noundef %2, ptr noundef %3, i64 noundef %4, ptr noundef %5, i64 noundef %6) local_unnamed_addr #1 {
  %8 = tail call i64 @ZSTDv06_decompressBegin_usingDict(ptr noundef %0, ptr noundef %5, i64 noundef %6)
  %9 = getelementptr inbounds nuw i8, ptr %0, i64 21520
  %10 = load ptr, ptr %9, align 8, !tbaa !78
  %.not.i = icmp eq ptr %1, %10
  br i1 %.not.i, label %ZSTDv06_checkContinuity.exit, label %11

11:                                               ; preds = %7
  %12 = getelementptr inbounds nuw i8, ptr %0, i64 21544
  store ptr %10, ptr %12, align 8, !tbaa !79
  %13 = getelementptr inbounds nuw i8, ptr %0, i64 21528
  %14 = load ptr, ptr %13, align 8, !tbaa !80
  %15 = ptrtoint ptr %10 to i64
  %16 = ptrtoint ptr %14 to i64
  %.neg.i = sub i64 %16, %15
  %17 = getelementptr inbounds i8, ptr %1, i64 %.neg.i
  %18 = getelementptr inbounds nuw i8, ptr %0, i64 21536
  store ptr %17, ptr %18, align 8, !tbaa !81
  store ptr %1, ptr %13, align 8, !tbaa !80
  store ptr %1, ptr %9, align 8, !tbaa !78
  br label %ZSTDv06_checkContinuity.exit

ZSTDv06_checkContinuity.exit:                     ; preds = %7, %11
  %19 = tail call fastcc i64 @ZSTDv06_decompressFrame(ptr noundef nonnull %0, ptr noundef %1, i64 noundef %2, ptr noundef %3, i64 noundef %4)
  ret i64 %19
}